target datalayout = "e-m:e-p270:32:32-p271:32:32-p272:64:64-i64:64-i128:128-f80:128-n8:16:32:64-S128"
target triple = "x86_64-unknown-linux-gnu"

%"class.pugi::xml_node" = type { ptr }
%"class.pugi::xml_writer" = type { ptr }
%"class.pugi::xml_writer_stream" = type { %"class.pugi::xml_writer", ptr, ptr }
%"class.pugi::impl::(anonymous namespace)::xml_buffered_writer" = type <{ [2048 x i8], %union.anon.5, ptr, i64, i32, [4 x i8] }>
%union.anon.5 = type { [2048 x i32] }

@_ZN4pugi17xml_writer_streamC1ERSo = unnamed_addr alias void (ptr, ptr), ptr @_ZN4pugi17xml_writer_streamC2ERSo

; Function Attrs: mustprogress nounwind uwtable
define internal noundef zeroext i1 @_ZN4pugi4impl12_GLOBAL__N_116is_little_endianEv() #0 {
entry:
  %ui = alloca i32, align 4
  store i32 1, ptr %ui, align 4
  %0 = load i8, ptr %ui, align 4
  %conv = zext i8 %0 to i32
  %cmp = icmp eq i32 %conv, 1
  ret i1 %cmp
}

; Function Attrs: mustprogress uwtable
define internal noundef i32 @_ZN4pugi4impl12_GLOBAL__N_118get_wchar_encodingEv() #2 {
entry:
  %call = call noundef zeroext i1 @_ZN4pugi4impl12_GLOBAL__N_116is_little_endianEv()
  %cond = select i1 %call, i32 5, i32 6
  ret i32 %cond
}

; Function Attrs: mustprogress uwtable
define internal noundef i32 @_ZN4pugi4impl12_GLOBAL__N_118get_write_encodingENS_12xml_encodingE(i32 noundef %encoding) #2 {
entry:
  %retval = alloca i32, align 4
  %encoding.addr = alloca i32, align 4
  store i32 %encoding, ptr %encoding.addr, align 4
  %0 = load i32, ptr %encoding.addr, align 4
  %cmp = icmp eq i32 %0, 8
  br i1 %cmp, label %if.then, label %if.end

if.then:                                          ; preds = %entry
  %call = call noundef i32 @_ZN4pugi4impl12_GLOBAL__N_118get_wchar_encodingEv()
  store i32 %call, ptr %retval, align 4
  br label %return

if.end:                                           ; preds = %entry
  %1 = load i32, ptr %encoding.addr, align 4
  %cmp1 = icmp eq i32 %1, 4
  br i1 %cmp1, label %if.then2, label %if.end4

if.then2:                                         ; preds = %if.end
  %call3 = call noundef zeroext i1 @_ZN4pugi4impl12_GLOBAL__N_116is_little_endianEv()
  %cond = select i1 %call3, i32 2, i32 3
  store i32 %cond, ptr %retval, align 4
  br label %return

if.end4:                                          ; preds = %if.end
  %2 = load i32, ptr %encoding.addr, align 4
  %cmp5 = icmp eq i32 %2, 7
  br i1 %cmp5, label %if.then6, label %if.end9

if.then6:                                         ; preds = %if.end4
  %call7 = call noundef zeroext i1 @_ZN4pugi4impl12_GLOBAL__N_116is_little_endianEv()
  %cond8 = select i1 %call7, i32 5, i32 6
  store i32 %cond8, ptr %retval, align 4
  br label %return

if.end9:                                          ; preds = %if.end4
  %3 = load i32, ptr %encoding.addr, align 4
  %cmp10 = icmp ne i32 %3, 0
  br i1 %cmp10, label %if.then11, label %if.end12

if.then11:                                        ; preds = %if.end9
  %4 = load i32, ptr %encoding.addr, align 4
  store i32 %4, ptr %retval, align 4
  br label %return

if.end12:                                         ; preds = %if.end9
  store i32 1, ptr %retval, align 4
  br label %return

return:                                           ; preds = %if.end12, %if.then11, %if.then6, %if.then2, %if.then
  %5 = load i32, ptr %retval, align 4
  ret i32 %5
}

; Function Attrs: mustprogress nounwind uwtable
define void @_ZN4pugi10xml_writerD2Ev(ptr noundef nonnull align 8 dereferenceable(8) %this) unnamed_addr #0 align 2 {
entry:
  %this.addr = alloca ptr, align 8
  store ptr %this, ptr %this.addr, align 8
  ret void
}

; Function Attrs: mustprogress uwtable
define internal noundef i64 @_ZN4pugi4impl12_GLOBAL__N_119xml_buffered_writer5flushEv(ptr noundef nonnull align 8 dereferenceable(10260) %this) #2 align 2 {
entry:
  %this.addr = alloca ptr, align 8
  store ptr %this, ptr %this.addr, align 8
  %this1 = load ptr, ptr %this.addr, align 8
  %buffer = getelementptr inbounds %"class.pugi::impl::(anonymous namespace)::xml_buffered_writer", ptr %this1, i32 0, i32 0
  %arraydecay = getelementptr inbounds [2048 x i8], ptr %buffer, i64 0, i64 0
  %bufsize = getelementptr inbounds %"class.pugi::impl::(anonymous namespace)::xml_buffered_writer", ptr %this1, i32 0, i32 3
  %0 = load i64, ptr %bufsize, align 8
  call void @_ZN4pugi4impl12_GLOBAL__N_119xml_buffered_writer5flushEPKcm(ptr noundef nonnull align 8 dereferenceable(10260) %this1, ptr noundef %arraydecay, i64 noundef %0)
  %bufsize2 = getelementptr inbounds %"class.pugi::impl::(anonymous namespace)::xml_buffered_writer", ptr %this1, i32 0, i32 3
  store i64 0, ptr %bufsize2, align 8
  ret i64 0
}

; Function Attrs: mustprogress uwtable
define internal void @_ZN4pugi4impl12_GLOBAL__N_119xml_buffered_writerC2ERNS_10xml_writerENS_12xml_encodingE(ptr noundef nonnull align 8 dereferenceable(10260) %this, ptr noundef nonnull align 8 dereferenceable(8) %writer_, i32 noundef %user_encoding) unnamed_addr #2 align 2 {
entry:
  %this.addr = alloca ptr, align 8
  %writer_.addr = alloca ptr, align 8
  %user_encoding.addr = alloca i32, align 4
  store ptr %this, ptr %this.addr, align 8
  store ptr %writer_, ptr %writer_.addr, align 8
  store i32 %user_encoding, ptr %user_encoding.addr, align 4
  %this1 = load ptr, ptr %this.addr, align 8
  %writer = getelementptr inbounds %"class.pugi::impl::(anonymous namespace)::xml_buffered_writer", ptr %this1, i32 0, i32 2
  %0 = load ptr, ptr %writer_.addr, align 8
  store ptr %0, ptr %writer, align 8
  %bufsize = getelementptr inbounds %"class.pugi::impl::(anonymous namespace)::xml_buffered_writer", ptr %this1, i32 0, i32 3
  store i64 0, ptr %bufsize, align 8
  %encoding = getelementptr inbounds %"class.pugi::impl::(anonymous namespace)::xml_buffered_writer", ptr %this1, i32 0, i32 4
  %1 = load i32, ptr %user_encoding.addr, align 4
  %call = call noundef i32 @_ZN4pugi4impl12_GLOBAL__N_118get_write_encodingENS_12xml_encodingE(i32 noundef %1)
  store i32 %call, ptr %encoding, align 8
  ret void
}

; Function Attrs: mustprogress nounwind uwtable
define linkonce_odr void @_ZN4pugi17xml_writer_streamD2Ev(ptr noundef nonnull align 8 dereferenceable(24) %this) unnamed_addr #0 comdat align 2 {
entry:
  %this.addr = alloca ptr, align 8
  store ptr %this, ptr %this.addr, align 8
  %this1 = load ptr, ptr %this.addr, align 8
  call void @_ZN4pugi10xml_writerD2Ev(ptr noundef nonnull align 8 dereferenceable(8) %this1) #9
  ret void
}

; Function Attrs: mustprogress uwtable
define void @_ZNK4pugi8xml_node5printERNS_10xml_writerEPKcjNS_12xml_encodingEj(ptr noundef nonnull align 8 dereferenceable(8) %this, ptr noundef nonnull align 8 dereferenceable(8) %writer, ptr noundef %indent, i32 noundef %flags, i32 noundef %encoding, i32 noundef %depth) #2 align 2 {
entry:
  %this.addr = alloca ptr, align 8
  %writer.addr = alloca ptr, align 8
  %indent.addr = alloca ptr, align 8
  %flags.addr = alloca i32, align 4
  %encoding.addr = alloca i32, align 4
  %depth.addr = alloca i32, align 4
  %buffered_writer = alloca %"class.pugi::impl::(anonymous namespace)::xml_buffered_writer", align 8
  store ptr %this, ptr %this.addr, align 8
  store ptr %writer, ptr %writer.addr, align 8
  store ptr %indent, ptr %indent.addr, align 8
  store i32 %flags, ptr %flags.addr, align 4
  store i32 %encoding, ptr %encoding.addr, align 4
  store i32 %depth, ptr %depth.addr, align 4
  %this1 = load ptr, ptr %this.addr, align 8
  %_root = getelementptr inbounds %"class.pugi::xml_node", ptr %this1, i32 0, i32 0
  %0 = load ptr, ptr %_root, align 8
  %tobool = icmp ne ptr %0, null
  br i1 %tobool, label %if.end, label %if.then

if.then:                                          ; preds = %entry
  br label %return

if.end:                                           ; preds = %entry
  %1 = load ptr, ptr %writer.addr, align 8
  %2 = load i32, ptr %encoding.addr, align 4
  call void @_ZN4pugi4impl12_GLOBAL__N_119xml_buffered_writerC2ERNS_10xml_writerENS_12xml_encodingE(ptr noundef nonnull align 8 dereferenceable(10260) %buffered_writer, ptr noundef nonnull align 8 dereferenceable(8) %1, i32 noundef %2)
  %_root2 = getelementptr inbounds %"class.pugi::xml_node", ptr %this1, i32 0, i32 0
  %3 = load ptr, ptr %_root2, align 8
  %4 = load ptr, ptr %indent.addr, align 8
  %5 = load i32, ptr %flags.addr, align 4
  %6 = load i32, ptr %depth.addr, align 4
  call void @_ZN4pugi4impl12_GLOBAL__N_111node_outputERNS1_19xml_buffered_writerEPNS_15xml_node_structEPKcjj(ptr noundef nonnull align 8 dereferenceable(10260) %buffered_writer, ptr noundef %3, ptr noundef %4, i32 noundef %5, i32 noundef %6)
  %call = call noundef i64 @_ZN4pugi4impl12_GLOBAL__N_119xml_buffered_writer5flushEv(ptr noundef nonnull align 8 dereferenceable(10260) %buffered_writer)
  br label %return

return:                                           ; preds = %if.end, %if.then
  ret void
}

; Function Attrs: mustprogress uwtable
define void @_ZNK4pugi8xml_node5printERSoPKcjNS_12xml_encodingEj(ptr noundef nonnull align 8 dereferenceable(8) %this, ptr noundef nonnull align 8 dereferenceable(8) %stream, ptr noundef %indent, i32 noundef %flags, i32 noundef %encoding, i32 noundef %depth) #2 align 2 personality ptr @__gxx_personality_v0 {
entry:
  %this.addr = alloca ptr, align 8
  %stream.addr = alloca ptr, align 8
  %indent.addr = alloca ptr, align 8
  %flags.addr = alloca i32, align 4
  %encoding.addr = alloca i32, align 4
  %depth.addr = alloca i32, align 4
  %writer = alloca %"class.pugi::xml_writer_stream", align 8
  %exn.slot = alloca ptr, align 8
  %ehselector.slot = alloca i32, align 4
  store ptr %this, ptr %this.addr, align 8
  store ptr %stream, ptr %stream.addr, align 8
  store ptr %indent, ptr %indent.addr, align 8
  store i32 %flags, ptr %flags.addr, align 4
  store i32 %encoding, ptr %encoding.addr, align 4
  store i32 %depth, ptr %depth.addr, align 4
  %this1 = load ptr, ptr %this.addr, align 8
  %0 = load ptr, ptr %stream.addr, align 8
  call void @_ZN4pugi17xml_writer_streamC1ERSo(ptr noundef nonnull align 8 dereferenceable(24) %writer, ptr noundef nonnull align 8 dereferenceable(8) %0)
  %1 = load ptr, ptr %indent.addr, align 8
  %2 = load i32, ptr %flags.addr, align 4
  %3 = load i32, ptr %encoding.addr, align 4
  %4 = load i32, ptr %depth.addr, align 4
  invoke void @_ZNK4pugi8xml_node5printERNS_10xml_writerEPKcjNS_12xml_encodingEj(ptr noundef nonnull align 8 dereferenceable(8) %this1, ptr noundef nonnull align 8 dereferenceable(8) %writer, ptr noundef %1, i32 noundef %2, i32 noundef %3, i32 noundef %4)
          to label %invoke.cont unwind label %lpad

invoke.cont:                                      ; preds = %entry
  call void @_ZN4pugi17xml_writer_streamD2Ev(ptr noundef nonnull align 8 dereferenceable(24) %writer) #9
  ret void

lpad:                                             ; preds = %entry
  %5 = landingpad { ptr, i32 }
          cleanup
  %6 = extractvalue { ptr, i32 } %5, 0
  store ptr %6, ptr %exn.slot, align 8
  %7 = extractvalue { ptr, i32 } %5, 1
  store i32 %7, ptr %ehselector.slot, align 4
  call void @_ZN4pugi17xml_writer_streamD2Ev(ptr noundef nonnull align 8 dereferenceable(24) %writer) #9
  br label %eh.resume

eh.resume:                                        ; preds = %lpad
  %exn = load ptr, ptr %exn.slot, align 8
  %sel = load i32, ptr %ehselector.slot, align 4
  %lpad.val = insertvalue { ptr, i32 } poison, ptr %exn, 0
  %lpad.val2 = insertvalue { ptr, i32 } %lpad.val, i32 %sel, 1
  resume { ptr, i32 } %lpad.val2
}