; Function Attrs: mustprogress uwtable
define void @_ZNK4pugi8xml_node5printERSoPKcjNS_12xml_encodingEj(ptr nocapture noundef nonnull readonly align 8 dereferenceable(8) %this, ptr noundef nonnull align 8 dereferenceable(8) %stream, ptr noundef %indent, i32 noundef %flags, i32 noundef %encoding, i32 noundef %depth) local_unnamed_addr #6 align 2 personality ptr @__gxx_personality_v0 {
entry:
  %buffered_writer.i = alloca %"class.pugi::impl::(anonymous namespace)::xml_buffered_writer", align 8
  %writer = alloca %"class.pugi::xml_writer_stream", align 8
  call void @_ZN4pugi17xml_writer_streamC1ERSo(ptr noundef nonnull align 8 dereferenceable(24) %writer, ptr noundef nonnull align 8 dereferenceable(8) %stream)
  call void @llvm.lifetime.start.p0(i64 10264, ptr nonnull %buffered_writer.i)
  %0 = load ptr, ptr %this, align 8
  %tobool.not.i = icmp eq ptr %0, null
  br i1 %tobool.not.i, label %invoke.cont, label %if.end.i

if.end.i:                                         ; preds = %entry
  %writer.i.i = getelementptr inbounds i8, ptr %buffered_writer.i, i64 10240
  store ptr %writer, ptr %writer.i.i, align 8
  %bufsize.i.i = getelementptr inbounds i8, ptr %buffered_writer.i, i64 10248
  store i64 0, ptr %bufsize.i.i, align 8
  %1 = icmp ult i32 %encoding, 9
  br i1 %1, label %switch.hole_check, label %_ZN4pugi4impl12_GLOBAL__N_119xml_buffered_writerC2ERNS_10xml_writerENS_12xml_encodingE.exit.i

switch.hole_check:                                ; preds = %if.end.i
  %switch.maskindex = trunc i32 %encoding to i16
  %switch.shifted = lshr i16 401, %switch.maskindex
  %2 = and i16 %switch.shifted, 1
  %switch.lobit.not = icmp eq i16 %2, 0
  br i1 %switch.lobit.not, label %_ZN4pugi4impl12_GLOBAL__N_119xml_buffered_writerC2ERNS_10xml_writerENS_12xml_encodingE.exit.i, label %switch.lookup

switch.lookup:                                    ; preds = %switch.hole_check
  %3 = zext nneg i32 %encoding to i64
  %switch.gep = getelementptr inbounds [9 x i32], ptr @switch.table._ZNK4pugi12xml_document4saveERNS_10xml_writerEPKcjNS_12xml_encodingE, i64 0, i64 %3
  %switch.load = load i32, ptr %switch.gep, align 4
  br label %_ZN4pugi4impl12_GLOBAL__N_119xml_buffered_writerC2ERNS_10xml_writerENS_12xml_encodingE.exit.i

_ZN4pugi4impl12_GLOBAL__N_119xml_buffered_writerC2ERNS_10xml_writerENS_12xml_encodingE.exit.i: ; preds = %switch.lookup, %switch.hole_check, %if.end.i
  %retval.0.i.i.i = phi i32 [ %encoding, %if.end.i ], [ %encoding, %switch.hole_check ], [ %switch.load, %switch.lookup ]
  %encoding.i.i = getelementptr inbounds i8, ptr %buffered_writer.i, i64 10256
  store i32 %retval.0.i.i.i, ptr %encoding.i.i, align 8
  call fastcc void @_ZN4pugi4impl12_GLOBAL__N_111node_outputERNS1_19xml_buffered_writerEPNS_15xml_node_structEPKcjj(ptr noundef nonnull align 8 dereferenceable(10260) %buffered_writer.i, ptr noundef nonnull %0, ptr noundef %indent, i32 noundef %flags, i32 noundef %depth)
  %4 = load i64, ptr %bufsize.i.i, align 8
  call fastcc void @_ZN4pugi4impl12_GLOBAL__N_119xml_buffered_writer5flushEPKcm(ptr noundef nonnull align 8 dereferenceable(10260) %buffered_writer.i, ptr noundef nonnull %buffered_writer.i, i64 noundef %4)
  br label %invoke.cont

invoke.cont:                                      ; preds = %_ZN4pugi4impl12_GLOBAL__N_119xml_buffered_writerC2ERNS_10xml_writerENS_12xml_encodingE.exit.i, %entry
  call void @llvm.lifetime.end.p0(i64 10264, ptr nonnull %buffered_writer.i)
  ret void
}